target datalayout = "e-m:e-p270:32:32-p271:32:32-p272:64:64-i64:64-i128:128-f80:128-n8:16:32:64-S128"
target triple = "x86_64-unknown-linux-gnu"

%struct.ecc_point = type { [1 x %struct.sp_int], [1 x %struct.sp_int], [1 x %struct.sp_int] }
%struct.sp_int = type { i32, i32, [129 x i64] }

; Function Attrs: nounwind uwtable
define internal i32 @ecc_point_to_mont(ptr noundef %p, ptr noundef %r, ptr noundef %modulus, ptr noundef %heap) #0 {
entry:
  %p.addr = alloca ptr, align 8
  %r.addr = alloca ptr, align 8
  %modulus.addr = alloca ptr, align 8
  %heap.addr = alloca ptr, align 8
  %err = alloca i32, align 4
  %saved_stack = alloca ptr, align 8
  %__vla_expr0 = alloca i64, align 8
  %mu = alloca ptr, align 8
  store ptr %p, ptr %p.addr, align 8
  store ptr %r, ptr %r.addr, align 8
  store ptr %modulus, ptr %modulus.addr, align 8
  store ptr %heap, ptr %heap.addr, align 8
  store i32 0, ptr %err, align 4
  %0 = load ptr, ptr %modulus.addr, align 8
  %used = getelementptr inbounds %struct.sp_int, ptr %0, i32 0, i32 0
  %1 = load i32, ptr %used, align 8
  %mul = mul i32 %1, 64
  %add = add i32 %mul, 64
  %sub = sub i32 %add, 1
  %div = udiv i32 %sub, 64
  %mul1 = mul i32 %div, 2
  %add2 = add i32 %mul1, 1
  %cmp = icmp ule i32 %add2, 1
  br i1 %cmp, label %cond.true, label %cond.false

cond.true:                                        ; preds = %entry
  br label %cond.end

cond.false:                                       ; preds = %entry
  %2 = load ptr, ptr %modulus.addr, align 8
  %used3 = getelementptr inbounds %struct.sp_int, ptr %2, i32 0, i32 0
  %3 = load i32, ptr %used3, align 8
  %mul4 = mul i32 %3, 64
  %add5 = add i32 %mul4, 64
  %sub6 = sub i32 %add5, 1
  %div7 = udiv i32 %sub6, 64
  %mul8 = mul i32 %div7, 2
  %add9 = add i32 %mul8, 1
  %sub10 = sub i32 %add9, 1
  br label %cond.end

cond.end:                                         ; preds = %cond.false, %cond.true
  %cond = phi i32 [ 0, %cond.true ], [ %sub10, %cond.false ]
  %conv = zext i32 %cond to i64
  %mul11 = mul i64 %conv, 8
  %add12 = add i64 16, %mul11
  %4 = call ptr @llvm.stacksave.p0()
  store ptr %4, ptr %saved_stack, align 8
  %vla = alloca i8, i64 %add12, align 16
  store i64 %add12, ptr %__vla_expr0, align 8
  store ptr %vla, ptr %mu, align 8
  %5 = load ptr, ptr %mu, align 8
  %6 = load ptr, ptr %modulus.addr, align 8
  %used13 = getelementptr inbounds %struct.sp_int, ptr %6, i32 0, i32 0
  %7 = load i32, ptr %used13, align 8
  %mul14 = mul i32 %7, 64
  %add15 = add i32 %mul14, 64
  %sub16 = sub i32 %add15, 1
  %div17 = udiv i32 %sub16, 64
  %mul18 = mul i32 %div17, 2
  %add19 = add i32 %mul18, 1
  %cmp20 = icmp ule i32 %add19, 1
  br i1 %cmp20, label %cond.true22, label %cond.false23

cond.true22:                                      ; preds = %cond.end
  br label %cond.end32

cond.false23:                                     ; preds = %cond.end
  %8 = load ptr, ptr %modulus.addr, align 8
  %used24 = getelementptr inbounds %struct.sp_int, ptr %8, i32 0, i32 0
  %9 = load i32, ptr %used24, align 8
  %mul25 = mul i32 %9, 64
  %add26 = add i32 %mul25, 64
  %sub27 = sub i32 %add26, 1
  %div28 = udiv i32 %sub27, 64
  %mul29 = mul i32 %div28, 2
  %add30 = add i32 %mul29, 1
  %sub31 = sub i32 %add30, 1
  br label %cond.end32

cond.end32:                                       ; preds = %cond.false23, %cond.true22
  %cond33 = phi i32 [ 0, %cond.true22 ], [ %sub31, %cond.false23 ]
  %conv34 = zext i32 %cond33 to i64
  %mul35 = mul i64 %conv34, 8
  %add36 = add i64 16, %mul35
  call void @llvm.memset.p0.i64(ptr align 8 %5, i8 0, i64 %add36, i1 false)
  %10 = load i32, ptr %err, align 4
  %cmp37 = icmp eq i32 %10, 0
  br i1 %cmp37, label %if.then, label %if.end

if.then:                                          ; preds = %cond.end32
  %11 = load ptr, ptr %mu, align 8
  %12 = load ptr, ptr %modulus.addr, align 8
  %used39 = getelementptr inbounds %struct.sp_int, ptr %12, i32 0, i32 0
  %13 = load i32, ptr %used39, align 8
  %mul40 = mul i32 %13, 64
  %add41 = add i32 %mul40, 64
  %sub42 = sub i32 %add41, 1
  %div43 = udiv i32 %sub42, 64
  %mul44 = mul i32 %div43, 2
  %add45 = add i32 %mul44, 1
  %call = call i32 @sp_init_size(ptr noundef %11, i32 noundef %add45)
  store i32 %call, ptr %err, align 4
  br label %if.end

if.end:                                           ; preds = %if.then, %cond.end32
  %14 = load i32, ptr %err, align 4
  %cmp46 = icmp eq i32 %14, 0
  br i1 %cmp46, label %if.then48, label %if.end101

if.then48:                                        ; preds = %if.end
  %15 = load ptr, ptr %mu, align 8
  %16 = load ptr, ptr %modulus.addr, align 8
  %call49 = call i32 @sp_mont_norm(ptr noundef %15, ptr noundef %16)
  store i32 %call49, ptr %err, align 4
  %17 = load i32, ptr %err, align 4
  %cmp50 = icmp eq i32 %17, 0
  br i1 %cmp50, label %if.then52, label %if.end100

if.then52:                                        ; preds = %if.then48
  %18 = load ptr, ptr %mu, align 8
  %call53 = call i32 @sp_cmp_d(ptr noundef %18, i64 noundef 1)
  %cmp54 = icmp eq i32 %call53, 0
  br i1 %cmp54, label %if.then56, label %if.else

if.then56:                                        ; preds = %if.then52
  %19 = load ptr, ptr %p.addr, align 8
  %x = getelementptr inbounds %struct.ecc_point, ptr %19, i32 0, i32 0
  %arraydecay = getelementptr inbounds [1 x %struct.sp_int], ptr %x, i64 0, i64 0
  %20 = load ptr, ptr %r.addr, align 8
  %x57 = getelementptr inbounds %struct.ecc_point, ptr %20, i32 0, i32 0
  %arraydecay58 = getelementptr inbounds [1 x %struct.sp_int], ptr %x57, i64 0, i64 0
  %call59 = call i32 @sp_copy(ptr noundef %arraydecay, ptr noundef %arraydecay58)
  store i32 %call59, ptr %err, align 4
  %21 = load i32, ptr %err, align 4
  %cmp60 = icmp eq i32 %21, 0
  br i1 %cmp60, label %if.then62, label %if.end67

if.then62:                                        ; preds = %if.then56
  %22 = load ptr, ptr %p.addr, align 8
  %y = getelementptr inbounds %struct.ecc_point, ptr %22, i32 0, i32 1
  %arraydecay63 = getelementptr inbounds [1 x %struct.sp_int], ptr %y, i64 0, i64 0
  %23 = load ptr, ptr %r.addr, align 8
  %y64 = getelementptr inbounds %struct.ecc_point, ptr %23, i32 0, i32 1
  %arraydecay65 = getelementptr inbounds [1 x %struct.sp_int], ptr %y64, i64 0, i64 0
  %call66 = call i32 @sp_copy(ptr noundef %arraydecay63, ptr noundef %arraydecay65)
  store i32 %call66, ptr %err, align 4
  br label %if.end67

if.end67:                                         ; preds = %if.then62, %if.then56
  %24 = load i32, ptr %err, align 4
  %cmp68 = icmp eq i32 %24, 0
  br i1 %cmp68, label %if.then70, label %if.end75

if.then70:                                        ; preds = %if.end67
  %25 = load ptr, ptr %p.addr, align 8
  %z = getelementptr inbounds %struct.ecc_point, ptr %25, i32 0, i32 2
  %arraydecay71 = getelementptr inbounds [1 x %struct.sp_int], ptr %z, i64 0, i64 0
  %26 = load ptr, ptr %r.addr, align 8
  %z72 = getelementptr inbounds %struct.ecc_point, ptr %26, i32 0, i32 2
  %arraydecay73 = getelementptr inbounds [1 x %struct.sp_int], ptr %z72, i64 0, i64 0
  %call74 = call i32 @sp_copy(ptr noundef %arraydecay71, ptr noundef %arraydecay73)
  store i32 %call74, ptr %err, align 4
  br label %if.end75

if.end75:                                         ; preds = %if.then70, %if.end67
  br label %if.end99

if.else:                                          ; preds = %if.then52
  %27 = load ptr, ptr %p.addr, align 8
  %x76 = getelementptr inbounds %struct.ecc_point, ptr %27, i32 0, i32 0
  %arraydecay77 = getelementptr inbounds [1 x %struct.sp_int], ptr %x76, i64 0, i64 0
  %28 = load ptr, ptr %mu, align 8
  %29 = load ptr, ptr %modulus.addr, align 8
  %30 = load ptr, ptr %r.addr, align 8
  %x78 = getelementptr inbounds %struct.ecc_point, ptr %30, i32 0, i32 0
  %arraydecay79 = getelementptr inbounds [1 x %struct.sp_int], ptr %x78, i64 0, i64 0
  %call80 = call i32 @sp_mulmod(ptr noundef %arraydecay77, ptr noundef %28, ptr noundef %29, ptr noundef %arraydecay79)
  store i32 %call80, ptr %err, align 4
  %31 = load i32, ptr %err, align 4
  %cmp81 = icmp eq i32 %31, 0
  br i1 %cmp81, label %if.then83, label %if.end89

if.then83:                                        ; preds = %if.else
  %32 = load ptr, ptr %p.addr, align 8
  %y84 = getelementptr inbounds %struct.ecc_point, ptr %32, i32 0, i32 1
  %arraydecay85 = getelementptr inbounds [1 x %struct.sp_int], ptr %y84, i64 0, i64 0
  %33 = load ptr, ptr %mu, align 8
  %34 = load ptr, ptr %modulus.addr, align 8
  %35 = load ptr, ptr %r.addr, align 8
  %y86 = getelementptr inbounds %struct.ecc_point, ptr %35, i32 0, i32 1
  %arraydecay87 = getelementptr inbounds [1 x %struct.sp_int], ptr %y86, i64 0, i64 0
  %call88 = call i32 @sp_mulmod(ptr noundef %arraydecay85, ptr noundef %33, ptr noundef %34, ptr noundef %arraydecay87)
  store i32 %call88, ptr %err, align 4
  br label %if.end89

if.end89:                                         ; preds = %if.then83, %if.else
  %36 = load i32, ptr %err, align 4
  %cmp90 = icmp eq i32 %36, 0
  br i1 %cmp90, label %if.then92, label %if.end98

if.then92:                                        ; preds = %if.end89
  %37 = load ptr, ptr %p.addr, align 8
  %z93 = getelementptr inbounds %struct.ecc_point, ptr %37, i32 0, i32 2
  %arraydecay94 = getelementptr inbounds [1 x %struct.sp_int], ptr %z93, i64 0, i64 0
  %38 = load ptr, ptr %mu, align 8
  %39 = load ptr, ptr %modulus.addr, align 8
  %40 = load ptr, ptr %r.addr, align 8
  %z95 = getelementptr inbounds %struct.ecc_point, ptr %40, i32 0, i32 2
  %arraydecay96 = getelementptr inbounds [1 x %struct.sp_int], ptr %z95, i64 0, i64 0
  %call97 = call i32 @sp_mulmod(ptr noundef %arraydecay94, ptr noundef %38, ptr noundef %39, ptr noundef %arraydecay96)
  store i32 %call97, ptr %err, align 4
  br label %if.end98

if.end98:                                         ; preds = %if.then92, %if.end89
  br label %if.end99

if.end99:                                         ; preds = %if.end98, %if.end75
  br label %if.end100

if.end100:                                        ; preds = %if.end99, %if.then48
  %41 = load ptr, ptr %mu, align 8
  call void @sp_clear(ptr noundef %41)
  br label %if.end101

if.end101:                                        ; preds = %if.end100, %if.end
  br label %do.body

do.body:                                          ; preds = %if.end101
  br label %do.cond

do.cond:                                          ; preds = %do.body
  br label %do.end

do.end:                                           ; preds = %do.cond
  %42 = load i32, ptr %err, align 4
  %43 = load ptr, ptr %saved_stack, align 8
  call void @llvm.stackrestore.p0(ptr %43)
  ret i32 %42
}