; Function Attrs: nounwind uwtable
define internal fastcc i32 @ecc_point_to_mont(ptr noundef nonnull %p, ptr noundef %r, ptr noundef nonnull %modulus) unnamed_addr #2 {
entry:
  %0 = load i32, ptr %modulus, align 8
  %mul = shl i32 %0, 1
  %mul1 = and i32 %mul, 134217726
  %1 = shl nuw nsw i32 %mul1, 3
  %narrow = add nuw nsw i32 %1, 16
  %2 = zext nneg i32 %narrow to i64
  %vla = alloca i8, i64 %2, align 16
  call void @llvm.memset.p0.i64(ptr noundef nonnull align 16 dereferenceable(1) %vla, i8 0, i64 %2, i1 false)
  %add45 = or disjoint i32 %mul1, 1
  %call = call i32 @sp_init_size(ptr noundef nonnull %vla, i32 noundef %add45) #19
  %cmp46 = icmp eq i32 %call, 0
  br i1 %cmp46, label %if.then48, label %do.end

if.then48:                                        ; preds = %entry
  %call49 = call i32 @sp_mont_norm(ptr noundef nonnull %vla, ptr noundef nonnull %modulus) #19
  %cmp50 = icmp eq i32 %call49, 0
  br i1 %cmp50, label %if.then52, label %if.end100

if.then52:                                        ; preds = %if.then48
  %call53 = call i32 @sp_cmp_d(ptr noundef nonnull %vla, i64 noundef 1) #19
  %cmp54 = icmp eq i32 %call53, 0
  br i1 %cmp54, label %if.then56, label %if.else

if.then56:                                        ; preds = %if.then52
  %call59 = call i32 @sp_copy(ptr noundef nonnull %p, ptr noundef %r) #19
  %cmp60 = icmp eq i32 %call59, 0
  br i1 %cmp60, label %if.end67, label %if.end100

if.end67:                                         ; preds = %if.then56
  %y = getelementptr inbounds nuw i8, ptr %p, i64 1040
  %y64 = getelementptr inbounds nuw i8, ptr %r, i64 1040
  %call66 = call i32 @sp_copy(ptr noundef nonnull %y, ptr noundef nonnull %y64) #19
  %cmp68 = icmp eq i32 %call66, 0
  br i1 %cmp68, label %if.then70, label %if.end100

if.then70:                                        ; preds = %if.end67
  %z = getelementptr inbounds nuw i8, ptr %p, i64 2080
  %z72 = getelementptr inbounds nuw i8, ptr %r, i64 2080
  %call74 = call i32 @sp_copy(ptr noundef nonnull %z, ptr noundef nonnull %z72) #19
  br label %if.end100

if.else:                                          ; preds = %if.then52
  %call80 = call i32 @sp_mulmod(ptr noundef nonnull %p, ptr noundef nonnull %vla, ptr noundef nonnull %modulus, ptr noundef %r) #19
  %cmp81 = icmp eq i32 %call80, 0
  br i1 %cmp81, label %if.end89, label %if.end100

if.end89:                                         ; preds = %if.else
  %y84 = getelementptr inbounds nuw i8, ptr %p, i64 1040
  %y86 = getelementptr inbounds nuw i8, ptr %r, i64 1040
  %call88 = call i32 @sp_mulmod(ptr noundef nonnull %y84, ptr noundef nonnull %vla, ptr noundef nonnull %modulus, ptr noundef nonnull %y86) #19
  %cmp90 = icmp eq i32 %call88, 0
  br i1 %cmp90, label %if.then92, label %if.end100

if.then92:                                        ; preds = %if.end89
  %z93 = getelementptr inbounds nuw i8, ptr %p, i64 2080
  %z95 = getelementptr inbounds nuw i8, ptr %r, i64 2080
  %call97 = call i32 @sp_mulmod(ptr noundef nonnull %z93, ptr noundef nonnull %vla, ptr noundef nonnull %modulus, ptr noundef nonnull %z95) #19
  br label %if.end100

if.end100:                                        ; preds = %if.else, %if.then56, %if.then70, %if.end67, %if.then92, %if.end89, %if.then48
  %err.1 = phi i32 [ %call74, %if.then70 ], [ %call66, %if.end67 ], [ %call97, %if.then92 ], [ %call88, %if.end89 ], [ %call49, %if.then48 ], [ %call59, %if.then56 ], [ %call80, %if.else ]
  call void @sp_clear(ptr noundef nonnull %vla) #19
  br label %do.end

do.end:                                           ; preds = %entry, %if.end100
  %err.4 = phi i32 [ %err.1, %if.end100 ], [ %call, %entry ]
  ret i32 %err.4
}